; Function Attrs: mustprogress nounwind uwtable
define hidden void @_ZNK5ZMark23verify_all_stacks_emptyEv(ptr noundef nonnull align 64 dereferenceable(2652) %0) local_unnamed_addr #0 align 2 {
  %2 = alloca %class.ZVerifyMarkStacksEmptyClosure, align 8
  %3 = getelementptr inbounds i8, ptr %0, i64 384
  %4 = load ptr, ptr %0, align 64
  %5 = getelementptr inbounds i8, ptr %4, i64 8
  %6 = load i8, ptr %5, align 8
  store ptr getelementptr inbounds inrange(-16, 8) (i8, ptr @_ZTV29ZVerifyMarkStacksEmptyClosure, i64 16), ptr %2, align 8
  %7 = getelementptr inbounds i8, ptr %2, i64 8
  store ptr %3, ptr %7, align 8
  %8 = getelementptr inbounds i8, ptr %2, i64 16
  store i8 %6, ptr %8, align 8
  call void @_ZN7Threads10threads_doEP13ThreadClosure(ptr noundef nonnull %2) #15
  %9 = call noundef zeroext i1 @_ZNK14ZMarkStripeSet8is_emptyEv(ptr noundef nonnull align 64 dereferenceable(2112) %3) #15
  br i1 %9, label %12, label %10

10:                                               ; preds = %1
  %11 = load ptr, ptr @g_assert_poison, align 8
  store i8 88, ptr %11, align 1
  call void (ptr, i32, ptr, ptr, ...) @_Z15report_vm_errorPKciS0_S0_z(ptr noundef nonnull @.str.11, i32 noundef 1059, ptr noundef nonnull @.str.12, ptr noundef nonnull @.str.13) #16
  unreachable

12:                                               ; preds = %1
  ret void
}